; ModuleID = 'bench/linux/original/misc.ll'
source_filename = "bench/linux/original/misc.ll"
target datalayout = "e-m:e-p270:32:32-p271:32:32-p272:64:64-i64:64-i128:128-f80:128-n8:16:32:64-S128"
target triple = "x86_64-unknown-linux-gnu"

; Function Attrs: fn_ret_thunk_extern nofree norecurse nosync nounwind null_pointer_is_valid memory(none)
define dso_local i32 @num_digits(i32 noundef %0) local_unnamed_addr #0 align 16 {
  %2 = icmp slt i32 %0, 0
  %3 = tail call i32 @llvm.abs.i32(i32 %0, i1 false)
  %4 = select i1 %2, i32 2, i32 1
  %5 = sext i32 %3 to i64
  %6 = icmp slt i32 %3, 10
  br i1 %6, label %.loopexit, label %.preheader

.preheader:                                       ; preds = %1, %.preheader
  %7 = phi i32 [ %10, %.preheader ], [ %4, %1 ]
  %8 = phi i64 [ %9, %.preheader ], [ 10, %1 ]
  %9 = mul i64 %8, 10
  %10 = add i32 %7, 1
  %11 = icmp sgt i64 %9, %5
  br i1 %11, label %.loopexit, label %.preheader, !llvm.loop !5

.loopexit:                                        ; preds = %.preheader, %1
  %12 = phi i32 [ %4, %1 ], [ %10, %.preheader ]
  ret i32 %12
}

; Function Attrs: mustprogress nocallback nofree nosync nounwind speculatable willreturn memory(none)
declare i32 @llvm.abs.i32(i32, i1 immarg) #1


!llvm.module.flags = !{!0, !1, !2, !3, !4}

!0 = !{i32 1, !"wchar_size", i32 2}
!1 = !{i32 8, !"cf-protection-branch", i32 1}
!2 = !{i32 4, !"function_return_thunk_extern", i32 1}
!3 = !{i32 4, !"indirect_branch_cs_prefix", i32 1}
!4 = !{i32 4, !"SkipRaxSetup", i32 1}
!5 = distinct !{!5, !6, !7}
!6 = !{!"llvm.loop.mustprogress"}
!7 = !{!"llvm.loop.unroll.disable"}
